target datalayout = "e-m:e-p270:32:32-p271:32:32-p272:64:64-i64:64-i128:128-f80:128-n8:16:32:64-S128"
target triple = "x86_64-pc-linux-gnu"

%struct.blob = type { ptr, ptr, i64, i64, i32 }

@.str.1 = private unnamed_addr constant [10 x i8] c"b != NULL\00", align 1
@.str.2 = private unnamed_addr constant [108 x i8] c"generated/home/dtcxzyw/WorkSpace/Projects/compilers/llvm-opt-benchmark/bench/clamav/clamav/libclamav/blob.c\00", align 1
@__PRETTY_FUNCTION__.blobGetData = private unnamed_addr constant [41 x i8] c"unsigned char *blobGetData(const blob *)\00", align 1
@__PRETTY_FUNCTION__.blobGetDataSize = private unnamed_addr constant [37 x i8] c"size_t blobGetDataSize(const blob *)\00", align 1
@.str.14 = private unnamed_addr constant [11 x i8] c"b1 != NULL\00", align 1
@__PRETTY_FUNCTION__.blobcmp = private unnamed_addr constant [40 x i8] c"int blobcmp(const blob *, const blob *)\00", align 1
@.str.15 = private unnamed_addr constant [11 x i8] c"b2 != NULL\00", align 1

; Function Attrs: nounwind uwtable
define ptr @blobGetData(ptr noundef %0) #0 {
  %2 = alloca ptr, align 8
  %3 = alloca ptr, align 8
  store ptr %0, ptr %3, align 8
  %4 = load ptr, ptr %3, align 8
  %5 = icmp ne ptr %4, null
  br i1 %5, label %6, label %7

6:                                                ; preds = %1
  br label %8

7:                                                ; preds = %1
  call void @__assert_fail(ptr noundef @.str.1, ptr noundef @.str.2, i32 noundef 277, ptr noundef @__PRETTY_FUNCTION__.blobGetData) #8
  unreachable

8:                                                ; preds = %6
  %9 = load ptr, ptr %3, align 8
  %10 = getelementptr inbounds %struct.blob, ptr %9, i32 0, i32 2
  %11 = load i64, ptr %10, align 8
  %12 = icmp eq i64 %11, 0
  br i1 %12, label %13, label %14

13:                                               ; preds = %8
  store ptr null, ptr %2, align 8
  br label %18

14:                                               ; preds = %8
  %15 = load ptr, ptr %3, align 8
  %16 = getelementptr inbounds %struct.blob, ptr %15, i32 0, i32 1
  %17 = load ptr, ptr %16, align 8
  store ptr %17, ptr %2, align 8
  br label %18

18:                                               ; preds = %14, %13
  %19 = load ptr, ptr %2, align 8
  ret ptr %19
}

; Function Attrs: nounwind uwtable
define i64 @blobGetDataSize(ptr noundef %0) #0 {
  %2 = alloca ptr, align 8
  store ptr %0, ptr %2, align 8
  %3 = load ptr, ptr %2, align 8
  %4 = icmp ne ptr %3, null
  br i1 %4, label %5, label %6

5:                                                ; preds = %1
  br label %7

6:                                                ; preds = %1
  call void @__assert_fail(ptr noundef @.str.1, ptr noundef @.str.2, i32 noundef 290, ptr noundef @__PRETTY_FUNCTION__.blobGetDataSize) #8
  unreachable

7:                                                ; preds = %5
  %8 = load ptr, ptr %2, align 8
  %9 = getelementptr inbounds %struct.blob, ptr %8, i32 0, i32 2
  %10 = load i64, ptr %9, align 8
  ret i64 %10
}

; Function Attrs: nounwind uwtable
define i32 @blobcmp(ptr noundef %0, ptr noundef %1) #0 {
  %3 = alloca i32, align 4
  %4 = alloca ptr, align 8
  %5 = alloca ptr, align 8
  %6 = alloca i64, align 8
  %7 = alloca i64, align 8
  store ptr %0, ptr %4, align 8
  store ptr %1, ptr %5, align 8
  %8 = load ptr, ptr %4, align 8
  %9 = icmp ne ptr %8, null
  br i1 %9, label %10, label %11

10:                                               ; preds = %2
  br label %12

11:                                               ; preds = %2
  call void @__assert_fail(ptr noundef @.str.14, ptr noundef @.str.2, i32 noundef 345, ptr noundef @__PRETTY_FUNCTION__.blobcmp) #8
  unreachable

12:                                               ; preds = %10
  %13 = load ptr, ptr %5, align 8
  %14 = icmp ne ptr %13, null
  br i1 %14, label %15, label %16

15:                                               ; preds = %12
  br label %17

16:                                               ; preds = %12
  call void @__assert_fail(ptr noundef @.str.15, ptr noundef @.str.2, i32 noundef 346, ptr noundef @__PRETTY_FUNCTION__.blobcmp) #8
  unreachable

17:                                               ; preds = %15
  %18 = load ptr, ptr %4, align 8
  %19 = load ptr, ptr %5, align 8
  %20 = icmp eq ptr %18, %19
  br i1 %20, label %21, label %22

21:                                               ; preds = %17
  store i32 0, ptr %3, align 4
  br label %45

22:                                               ; preds = %17
  %23 = load ptr, ptr %4, align 8
  %24 = call i64 @blobGetDataSize(ptr noundef %23)
  store i64 %24, ptr %6, align 8
  %25 = load ptr, ptr %5, align 8
  %26 = call i64 @blobGetDataSize(ptr noundef %25)
  store i64 %26, ptr %7, align 8
  %27 = load i64, ptr %6, align 8
  %28 = load i64, ptr %7, align 8
  %29 = icmp ne i64 %27, %28
  br i1 %29, label %30, label %31

30:                                               ; preds = %22
  store i32 1, ptr %3, align 4
  br label %45

31:                                               ; preds = %22
  %32 = load i64, ptr %6, align 8
  %33 = icmp eq i64 %32, 0
  br i1 %33, label %34, label %38

34:                                               ; preds = %31
  %35 = load i64, ptr %7, align 8
  %36 = icmp eq i64 %35, 0
  br i1 %36, label %37, label %38

37:                                               ; preds = %34
  store i32 0, ptr %3, align 4
  br label %45

38:                                               ; preds = %34, %31
  %39 = load ptr, ptr %4, align 8
  %40 = call ptr @blobGetData(ptr noundef %39)
  %41 = load ptr, ptr %5, align 8
  %42 = call ptr @blobGetData(ptr noundef %41)
  %43 = load i64, ptr %6, align 8
  %44 = call i32 @memcmp(ptr noundef %40, ptr noundef %42, i64 noundef %43) #10
  store i32 %44, ptr %3, align 4
  br label %45

45:                                               ; preds = %38, %37, %30, %21
  %46 = load i32, ptr %3, align 4
  ret i32 %46
}