; Function Attrs: nounwind uwtable
define i32 @blobcmp(ptr noundef readonly %0, ptr noundef readonly %1) local_unnamed_addr #2 {
  %.not = icmp eq ptr %0, null
  br i1 %.not, label %3, label %4

3:                                                ; preds = %2
  tail call void @__assert_fail(ptr noundef nonnull @.str.14, ptr noundef nonnull @.str.2, i32 noundef 345, ptr noundef nonnull @__PRETTY_FUNCTION__.blobcmp) #17
  unreachable

4:                                                ; preds = %2
  %.not18 = icmp eq ptr %1, null
  br i1 %.not18, label %5, label %6

5:                                                ; preds = %4
  tail call void @__assert_fail(ptr noundef nonnull @.str.15, ptr noundef nonnull @.str.2, i32 noundef 346, ptr noundef nonnull @__PRETTY_FUNCTION__.blobcmp) #17
  unreachable

6:                                                ; preds = %4
  %7 = icmp eq ptr %0, %1
  br i1 %7, label %18, label %blobGetDataSize.exit21

blobGetDataSize.exit21:                           ; preds = %6
  %8 = getelementptr inbounds i8, ptr %0, i64 16
  %9 = load i64, ptr %8, align 8
  %10 = getelementptr inbounds i8, ptr %1, i64 16
  %11 = load i64, ptr %10, align 8
  %.not19 = icmp eq i64 %9, %11
  br i1 %.not19, label %12, label %18

12:                                               ; preds = %blobGetDataSize.exit21
  %or.cond = icmp eq i64 %9, 0
  br i1 %or.cond, label %18, label %blobGetData.exit25

blobGetData.exit25:                               ; preds = %12
  %13 = getelementptr inbounds i8, ptr %0, i64 8
  %14 = load ptr, ptr %13, align 8
  %15 = getelementptr inbounds i8, ptr %1, i64 8
  %16 = load ptr, ptr %15, align 8
  %17 = tail call i32 @memcmp(ptr noundef %14, ptr noundef %16, i64 noundef %9) #18
  br label %18

18:                                               ; preds = %12, %blobGetDataSize.exit21, %6, %blobGetData.exit25
  %.0 = phi i32 [ %17, %blobGetData.exit25 ], [ 0, %6 ], [ 1, %blobGetDataSize.exit21 ], [ 0, %12 ]
  ret i32 %.0
}